Certificate:
    Data:
        Version: 3 (0x2)
        Serial Number: 1 (0x1)
    Signature Algorithm: sha256WithRSAEncryption
        Issuer: C=US, ST=Test, L=Test, O=Test, OU=Test, CN=Test/emailAddress=test@test.net
        Validity
            Not Before: Sep  3 09:44:27 2015 GMT
            Not After : Sep  2 09:44:27 2016 GMT
        Subject: C=US, ST=Server, L=Server, O=Server, OU=Server, CN=Server/emailAddress=server@server.net
        Subject Public Key Info:
            Public Key Algorithm: rsaEncryption
                Public-Key: (2048 bit)
                Modulus:
                    00:e2:40:f9:31:12:98:d0:b6:99:71:08:3b:cc:dc:
                    0a:3d:2c:93:f8:bf:98:de:76:99:77:36:51:8c:50:
                    56:53:f5:b9:ec:c6:64:98:1e:46:43:a1:a2:50:e9:
                    b1:7c:4a:86:97:f7:44:66:45:e3:4a:2f:1b:35:90:
                    1d:ec:88:c7:91:99:29:a8:60:b5:d3:17:c6:34:9f:
                    09:24:cb:1f:67:95:ad:89:ae:31:17:ed:b2:31:c3:
                    6a:90:9c:93:52:d1:e2:a9:19:ab:df:8a:6b:c0:46:
                    05:79:48:ea:5f:1c:28:a7:3c:84:2f:c9:8b:59:73:
                    ea:80:3c:5b:d2:aa:f5:e5:36:bf:21:e8:7e:8c:6f:
                    0a:ea:72:be:b7:06:92:35:e5:f9:c9:ba:f5:33:76:
                    02:8b:dd:12:08:7c:48:67:00:02:a4:ce:e4:31:84:
                    d9:7e:50:06:4f:d7:c6:a3:01:52:b7:52:cc:6d:68:
                    23:0a:c3:fe:16:27:62:8a:06:88:6c:5c:3c:b6:72:
                    2e:d7:68:24:ab:53:ee:f3:8a:6b:13:ab:f0:78:f9:
                    54:21:a8:30:ff:da:7b:11:a1:fa:77:c3:56:98:35:
                    52:c4:14:60:0c:ec:da:d4:fe:3d:19:b1:ff:29:94:
                    c8:e0:5d:d7:b3:2d:e7:16:01:94:18:c8:a5:18:49:
                    a5:ab
                Exponent: 65537 (0x10001)
        X509v3 extensions:
            X509v3 Basic Constraints: 
                CA:FALSE
            Netscape Comment: 
                OpenSSL Generated Certificate
            X509v3 Subject Key Identifier: 
                9E:A5:97:C5:2C:A2:66:62:50:77:62:0D:AE:78:9B:EE:37:29:7C:AC
            X509v3 Authority Key Identifier: 
                keyid:07:FB:4F:C7:4D:69:E2:FD:BF:D3:88:73:EF:C3:2B:6E:3E:10:49:1D

    Signature Algorithm: sha256WithRSAEncryption
         15:8a:1d:0d:86:7a:e1:24:1b:f4:ab:d3:79:bb:58:ff:86:70:
         40:ca:89:40:15:32:96:df:49:b7:f3:ef:3c:1a:1c:ad:2e:7d:
         bb:50:f6:f4:be:23:6a:71:14:e1:3f:85:33:34:ec:96:11:5d:
         fb:bb:84:08:cf:b4:62:96:a6:fc:f6:18:83:88:b6:45:9b:a3:
         cd:10:1b:29:2a:3b:25:36:52:27:fd:7e:3d:9d:26:d9:1d:b0:
         d2:b1:75:97:94:8d:ce:6b:b3:33:9c:fc:b9:bc:ad:fa:1f:91:
         ea:13:62:99:3a:60:84:6c:1e:7e:fb:e4:92:81:cf:cc:b8:8e:
         65:83:86:ba:f2:30:cf:cb:30:c0:79:8f:ef:5e:5e:2c:a7:41:
         22:61:95:e7:f4:6f:7c:3a:5a:7d:65:03:16:b4:13:ec:f7:2c:
         be:1a:43:86:23:70:69:80:d7:7f:ce:54:1d:87:a0:c9:40:61:
         63:d5:92:87:eb:e1:3d:7e:21:dc:fc:8c:68:c7:57:a7:b0:a6:
         e9:ea:99:c5:19:79:50:f7:50:75:54:b0:85:d2:e0:38:2c:c4:
         46:03:4d:80:21:09:50:15:aa:30:22:36:c5:06:60:e2:d8:13:
         f8:af:54:f2:9f:a6:7b:75:4d:9a:a4:d2:f6:69:ed:09:15:d6:
         66:17:61:96
-----BEGIN CERTIFICATE-----
MIID8TCCAtmgAwIBAgIBATANBgkqhkiG9w0BAQsFADB2MQswCQYDVQQGEwJVUzEN
MAsGA1UECAwEVGVzdDENMAsGA1UEBwwEVGVzdDENMAsGA1UECgwEVGVzdDENMAsG
A1UECwwEVGVzdDENMAsGA1UEAwwEVGVzdDEcMBoGCSqGSIb3DQEJARYNdGVzdEB0
ZXN0Lm5ldDAeFw0xNTA5MDMwOTQ0MjdaFw0xNjA5MDIwOTQ0MjdaMIGEMQswCQYD
VQQGEwJVUzEPMA0GA1UECAwGU2VydmVyMQ8wDQYDVQQHDAZTZXJ2ZXIxDzANBgNV
BAoMBlNlcnZlcjEPMA0GA1UECwwGU2VydmVyMQ8wDQYDVQQDDAZTZXJ2ZXIxIDAe
BgkqhkiG9w0BCQEWEXNlcnZlckBzZXJ2ZXIubmV0MIIBIjANBgkqhkiG9w0BAQEF
AAOCAQ8AMIIBCgKCAQEA4kD5MRKY0LaZcQg7zNwKPSyT+L+Y3naZdzZRjFBWU/W5
7MZkmB5GQ6GiUOmxfEqGl/dEZkXjSi8bNZAd7IjHkZkpqGC10xfGNJ8JJMsfZ5Wt
ia4xF+2yMcNqkJyTUtHiqRmr34prwEYFeUjqXxwopzyEL8mLWXPqgDxb0qr15Ta/
Ieh+jG8K6nK+twaSNeX5ybr1M3YCi90SCHxIZwACpM7kMYTZflAGT9fGowFSt1LM
bWgjCsP+FidiigaIbFw8tnIu12gkq1Pu84prE6vwePlUIagw/9p7EaH6d8NWmDVS
xBRgDOza1P49GbH/KZTI4F3Xsy3nFgGUGMilGEmlqwIDAQABo3sweTAJBgNVHRME
AjAAMCwGCWCGSAGG+EIBDQQfFh1PcGVuU1NMIEdlbmVyYXRlZCBDZXJ0aWZpY2F0
ZTAdBgNVHQ4EFgQUnqWXxSyiZmJQd2INrnib7jcpfKwwHwYDVR0jBBgwFoAUB/tP
x01p4v2/04hz78Mrbj4QSR0wDQYJKoZIhvcNAQELBQADggEBABWKHQ2GeuEkG/Sr
03m7WP+GcEDKiUAVMpbfSbfz7zwaHK0ufbtQ9vS+I2pxFOE/hTM07JYRXfu7hAjP
tGKWpvz2GIOItkWbo80QGykqOyU2Uif9fj2dJtkdsNKxdZeUjc5rszOc/Lm8rfof
keoTYpk6YIRsHn775JKBz8y4jmWDhrryMM/LMMB5j+9eXiynQSJhlef0b3w6Wn1l
Axa0E+z3LL4aQ4YjcGmA13/OVB2HoMlAYWPVkofr4T1+Idz8jGjHV6ewpunqmcUZ
eVD3UHVUsIXS4DgsxEYDTYAhCVAVqjAiNsUGYOLYE/ivVPKfpnt1TZqk0vZp7QkV
1mYXYZY=
-----END CERTIFICATE-----
